target datalayout = "e-m:e-p270:32:32-p271:32:32-p272:64:64-i64:64-i128:128-f80:128-n8:16:32:64-S128"
target triple = "x86_64-pc-linux-gnu"

%"class.std::unique_ptr.29" = type { %"struct.std::__uniq_ptr_data.30" }
%"struct.std::__uniq_ptr_data.30" = type { %"class.std::__uniq_ptr_impl.31" }
%"class.std::__uniq_ptr_impl.31" = type { %"class.std::tuple.32" }
%"class.std::tuple.32" = type { %"struct.std::_Tuple_impl.33" }
%"struct.std::_Tuple_impl.33" = type { %"struct.std::_Tuple_impl.34", %"struct.std::_Head_base.36" }
%"struct.std::_Tuple_impl.34" = type { %"struct.std::_Head_base.35" }
%"struct.std::_Head_base.35" = type { ptr }
%"struct.std::_Head_base.36" = type { ptr }
%"class.absl::time_internal::cctz::(anonymous namespace)::FileZoneInfoSource" = type { %"class.absl::time_internal::cctz::ZoneInfoSource", %"class.std::unique_ptr.29", i64 }
%"class.absl::time_internal::cctz::ZoneInfoSource" = type { ptr }

; Function Attrs: mustprogress nounwind uwtable
define linkonce_odr dso_local noundef nonnull align 8 dereferenceable(8) ptr @_ZNSt10_Head_baseILm1EPFiP8_IO_FILEELb0EE7_M_headERS4_(ptr noundef nonnull align 8 dereferenceable(8) %0) #2 comdat align 2 {
  %2 = alloca ptr, align 8
  store ptr %0, ptr %2, align 8, !tbaa !361
  %3 = load ptr, ptr %2, align 8, !tbaa !361
  %4 = getelementptr inbounds nuw %"struct.std::_Head_base.35", ptr %3, i32 0, i32 0
  ret ptr %4
}

; Function Attrs: mustprogress nounwind uwtable
define linkonce_odr dso_local noundef nonnull align 8 dereferenceable(8) ptr @_ZNSt11_Tuple_implILm1EJPFiP8_IO_FILEEEE7_M_headERS4_(ptr noundef nonnull align 8 dereferenceable(8) %0) #2 comdat align 2 {
  %2 = alloca ptr, align 8
  store ptr %0, ptr %2, align 8, !tbaa !356
  %3 = load ptr, ptr %2, align 8, !tbaa !356
  %4 = call noundef nonnull align 8 dereferenceable(8) ptr @_ZNSt10_Head_baseILm1EPFiP8_IO_FILEELb0EE7_M_headERS4_(ptr noundef nonnull align 8 dereferenceable(8) %3) #17
  ret ptr %4
}

; Function Attrs: mustprogress nounwind uwtable
define linkonce_odr dso_local noundef nonnull align 8 dereferenceable(8) ptr @_ZNSt10_Head_baseILm0EP8_IO_FILELb0EE7_M_headERS2_(ptr noundef nonnull align 8 dereferenceable(8) %0) #2 comdat align 2 {
  %2 = alloca ptr, align 8
  store ptr %0, ptr %2, align 8, !tbaa !358
  %3 = load ptr, ptr %2, align 8, !tbaa !358
  %4 = getelementptr inbounds nuw %"struct.std::_Head_base.36", ptr %3, i32 0, i32 0
  ret ptr %4
}

; Function Attrs: mustprogress nounwind uwtable
define linkonce_odr dso_local noundef nonnull align 8 dereferenceable(8) ptr @_ZSt12__get_helperILm1EPFiP8_IO_FILEEJEERT0_RSt11_Tuple_implIXT_EJS4_DpT1_EE(ptr noundef nonnull align 8 dereferenceable(8) %0) #2 comdat {
  %2 = alloca ptr, align 8
  store ptr %0, ptr %2, align 8, !tbaa !356
  %3 = load ptr, ptr %2, align 8, !tbaa !356
  %4 = call noundef nonnull align 8 dereferenceable(8) ptr @_ZNSt11_Tuple_implILm1EJPFiP8_IO_FILEEEE7_M_headERS4_(ptr noundef nonnull align 8 dereferenceable(8) %3) #17
  ret ptr %4
}

; Function Attrs: mustprogress nounwind uwtable
define linkonce_odr dso_local noundef nonnull align 8 dereferenceable(8) ptr @_ZNSt11_Tuple_implILm0EJP8_IO_FILEPFiS1_EEE7_M_headERS4_(ptr noundef nonnull align 8 dereferenceable(16) %0) #2 comdat align 2 {
  %2 = alloca ptr, align 8
  store ptr %0, ptr %2, align 8, !tbaa !354
  %3 = load ptr, ptr %2, align 8, !tbaa !354
  %4 = getelementptr inbounds i8, ptr %3, i64 8
  %5 = call noundef nonnull align 8 dereferenceable(8) ptr @_ZNSt10_Head_baseILm0EP8_IO_FILELb0EE7_M_headERS2_(ptr noundef nonnull align 8 dereferenceable(8) %4) #17
  ret ptr %5
}

; Function Attrs: mustprogress nounwind uwtable
define linkonce_odr dso_local noundef nonnull align 8 dereferenceable(8) ptr @_ZSt3getILm1EJP8_IO_FILEPFiS1_EEERNSt13tuple_elementIXT_ESt5tupleIJDpT0_EEE4typeERS8_(ptr noundef nonnull align 8 dereferenceable(16) %0) #2 comdat {
  %2 = alloca ptr, align 8
  store ptr %0, ptr %2, align 8, !tbaa !352
  %3 = load ptr, ptr %2, align 8, !tbaa !352
  %4 = call noundef nonnull align 8 dereferenceable(8) ptr @_ZSt12__get_helperILm1EPFiP8_IO_FILEEJEERT0_RSt11_Tuple_implIXT_EJS4_DpT1_EE(ptr noundef nonnull align 8 dereferenceable(8) %3) #17
  ret ptr %4
}

; Function Attrs: mustprogress nounwind uwtable
define linkonce_odr dso_local noundef nonnull align 8 dereferenceable(8) ptr @_ZSt12__get_helperILm0EP8_IO_FILEJPFiS1_EEERT0_RSt11_Tuple_implIXT_EJS4_DpT1_EE(ptr noundef nonnull align 8 dereferenceable(16) %0) #2 comdat {
  %2 = alloca ptr, align 8
  store ptr %0, ptr %2, align 8, !tbaa !354
  %3 = load ptr, ptr %2, align 8, !tbaa !354
  %4 = call noundef nonnull align 8 dereferenceable(8) ptr @_ZNSt11_Tuple_implILm0EJP8_IO_FILEPFiS1_EEE7_M_headERS4_(ptr noundef nonnull align 8 dereferenceable(16) %3) #17
  ret ptr %4
}

; Function Attrs: mustprogress nounwind uwtable
define linkonce_odr dso_local noundef nonnull align 8 dereferenceable(8) ptr @_ZNSt15__uniq_ptr_implI8_IO_FILEPFiPS0_EE10_M_deleterEv(ptr noundef nonnull align 8 dereferenceable(16) %0) #2 comdat align 2 {
  %2 = alloca ptr, align 8
  store ptr %0, ptr %2, align 8, !tbaa !350
  %3 = load ptr, ptr %2, align 8
  %4 = getelementptr inbounds nuw %"class.std::__uniq_ptr_impl.31", ptr %3, i32 0, i32 0
  %5 = call noundef nonnull align 8 dereferenceable(8) ptr @_ZSt3getILm1EJP8_IO_FILEPFiS1_EEERNSt13tuple_elementIXT_ESt5tupleIJDpT0_EEE4typeERS8_(ptr noundef nonnull align 8 dereferenceable(16) %4) #17
  ret ptr %5
}

; Function Attrs: mustprogress nounwind uwtable
define linkonce_odr dso_local noundef nonnull align 8 dereferenceable(8) ptr @_ZSt3getILm0EJP8_IO_FILEPFiS1_EEERNSt13tuple_elementIXT_ESt5tupleIJDpT0_EEE4typeERS8_(ptr noundef nonnull align 8 dereferenceable(16) %0) #2 comdat {
  %2 = alloca ptr, align 8
  store ptr %0, ptr %2, align 8, !tbaa !352
  %3 = load ptr, ptr %2, align 8, !tbaa !352
  %4 = call noundef nonnull align 8 dereferenceable(8) ptr @_ZSt12__get_helperILm0EP8_IO_FILEJPFiS1_EEERT0_RSt11_Tuple_implIXT_EJS4_DpT1_EE(ptr noundef nonnull align 8 dereferenceable(16) %3) #17
  ret ptr %4
}

; Function Attrs: mustprogress nounwind uwtable
define linkonce_odr dso_local noundef nonnull align 8 dereferenceable(8) ptr @_ZNSt10unique_ptrI8_IO_FILEPFiPS0_EE11get_deleterEv(ptr noundef nonnull align 8 dereferenceable(16) %0) #2 comdat align 2 {
  %2 = alloca ptr, align 8
  store ptr %0, ptr %2, align 8, !tbaa !329
  %3 = load ptr, ptr %2, align 8
  %4 = getelementptr inbounds nuw %"class.std::unique_ptr.29", ptr %3, i32 0, i32 0
  %5 = call noundef nonnull align 8 dereferenceable(8) ptr @_ZNSt15__uniq_ptr_implI8_IO_FILEPFiPS0_EE10_M_deleterEv(ptr noundef nonnull align 8 dereferenceable(16) %4) #17
  ret ptr %5
}

; Function Attrs: mustprogress nounwind uwtable
define linkonce_odr dso_local noundef nonnull align 8 dereferenceable(8) ptr @_ZNSt15__uniq_ptr_implI8_IO_FILEPFiPS0_EE6_M_ptrEv(ptr noundef nonnull align 8 dereferenceable(16) %0) #2 comdat align 2 {
  %2 = alloca ptr, align 8
  store ptr %0, ptr %2, align 8, !tbaa !350
  %3 = load ptr, ptr %2, align 8
  %4 = getelementptr inbounds nuw %"class.std::__uniq_ptr_impl.31", ptr %3, i32 0, i32 0
  %5 = call noundef nonnull align 8 dereferenceable(8) ptr @_ZSt3getILm0EJP8_IO_FILEPFiS1_EEERNSt13tuple_elementIXT_ESt5tupleIJDpT0_EEE4typeERS8_(ptr noundef nonnull align 8 dereferenceable(16) %4) #17
  ret ptr %5
}

; Function Attrs: mustprogress nounwind uwtable
define linkonce_odr dso_local void @_ZNSt10unique_ptrI8_IO_FILEPFiPS0_EED2Ev(ptr noundef nonnull align 8 dereferenceable(16) %0) unnamed_addr #2 comdat align 2 personality ptr @__gxx_personality_v0 {
  %2 = alloca ptr, align 8
  %3 = alloca ptr, align 8
  store ptr %0, ptr %2, align 8, !tbaa !329
  %4 = load ptr, ptr %2, align 8
  call void @llvm.lifetime.start.p0(i64 8, ptr %3) #17
  %5 = getelementptr inbounds nuw %"class.std::unique_ptr.29", ptr %4, i32 0, i32 0
  %6 = call noundef nonnull align 8 dereferenceable(8) ptr @_ZNSt15__uniq_ptr_implI8_IO_FILEPFiPS0_EE6_M_ptrEv(ptr noundef nonnull align 8 dereferenceable(16) %5) #17
  store ptr %6, ptr %3, align 8, !tbaa !345
  %7 = load ptr, ptr %3, align 8, !tbaa !345
  %8 = load ptr, ptr %7, align 8, !tbaa !347
  %9 = icmp ne ptr %8, null
  br i1 %9, label %10, label %17

10:                                               ; preds = %1
  %11 = call noundef nonnull align 8 dereferenceable(8) ptr @_ZNSt10unique_ptrI8_IO_FILEPFiPS0_EE11get_deleterEv(ptr noundef nonnull align 8 dereferenceable(16) %4) #17
  %12 = load ptr, ptr %11, align 8, !tbaa !159
  %13 = load ptr, ptr %3, align 8, !tbaa !345
  %14 = load ptr, ptr %13, align 8, !tbaa !347
  %15 = invoke noundef i32 %12(ptr noundef %14)
          to label %16 unwind label %19

16:                                               ; preds = %10
  br label %17

17:                                               ; preds = %16, %1
  %18 = load ptr, ptr %3, align 8, !tbaa !345
  store ptr null, ptr %18, align 8, !tbaa !347
  call void @llvm.lifetime.end.p0(i64 8, ptr %3) #17
  ret void

19:                                               ; preds = %10
  %20 = landingpad { ptr, i32 }
          catch ptr null
  %21 = extractvalue { ptr, i32 } %20, 0
  call void @__clang_call_terminate(ptr %21) #19
  unreachable
}

; Function Attrs: inlinehint mustprogress nounwind uwtable
define internal void @_ZN4absl13time_internal4cctz12_GLOBAL__N_118FileZoneInfoSourceD2Ev(ptr noundef nonnull align 8 dereferenceable(32) %0) unnamed_addr #3 align 2 {
  %2 = alloca ptr, align 8
  store ptr %0, ptr %2, align 8, !tbaa !331
  %3 = load ptr, ptr %2, align 8
  store ptr getelementptr inbounds inrange(-16, 40) ({ [7 x ptr] }, ptr @_ZTVN4absl13time_internal4cctz12_GLOBAL__N_118FileZoneInfoSourceE, i32 0, i32 0, i32 2), ptr %3, align 8, !tbaa !128
  %4 = getelementptr inbounds nuw %"class.absl::time_internal::cctz::(anonymous namespace)::FileZoneInfoSource", ptr %3, i32 0, i32 1
  call void @_ZNSt10unique_ptrI8_IO_FILEPFiPS0_EED2Ev(ptr noundef nonnull align 8 dereferenceable(16) %4) #17
  call void @_ZN4absl13time_internal4cctz14ZoneInfoSourceD2Ev(ptr noundef nonnull align 8 dereferenceable(8) %3) #17
  ret void
}

; Function Attrs: inlinehint mustprogress nounwind uwtable
define internal void @_ZN4absl13time_internal4cctz12_GLOBAL__N_118FileZoneInfoSourceD0Ev(ptr noundef nonnull align 8 dereferenceable(32) %0) unnamed_addr #3 align 2 {
  %2 = alloca ptr, align 8
  store ptr %0, ptr %2, align 8, !tbaa !331
  %3 = load ptr, ptr %2, align 8
  call void @_ZN4absl13time_internal4cctz12_GLOBAL__N_118FileZoneInfoSourceD2Ev(ptr noundef nonnull align 8 dereferenceable(32) %3) #17
  call void @_ZdlPvm(ptr noundef %3, i64 noundef 32) #22
  ret void
}