; Function Attrs: inlinehint mustprogress nounwind uwtable
define internal void @_ZN4absl13time_internal4cctz12_GLOBAL__N_118FileZoneInfoSourceD0Ev(ptr noundef nonnull align 8 dereferenceable(32) initializes((0, 8)) %0) unnamed_addr #6 align 2 personality ptr @__gxx_personality_v0 {
  store ptr getelementptr inbounds nuw inrange(-16, 40) (i8, ptr @_ZTVN4absl13time_internal4cctz12_GLOBAL__N_118FileZoneInfoSourceE, i64 16), ptr %0, align 8, !tbaa !114
  %2 = getelementptr inbounds nuw i8, ptr %0, i64 16
  %3 = load ptr, ptr %2, align 8, !tbaa !267
  %.not.i.i = icmp eq ptr %3, null
  br i1 %.not.i.i, label %_ZN4absl13time_internal4cctz12_GLOBAL__N_118FileZoneInfoSourceD2Ev.exit, label %4

4:                                                ; preds = %1
  %5 = getelementptr inbounds nuw i8, ptr %0, i64 8
  %6 = load ptr, ptr %5, align 8, !tbaa !146
  %7 = invoke noundef i32 %6(ptr noundef nonnull %3)
          to label %_ZN4absl13time_internal4cctz12_GLOBAL__N_118FileZoneInfoSourceD2Ev.exit unwind label %8

8:                                                ; preds = %4
  %9 = landingpad { ptr, i32 }
          catch ptr null
  %10 = extractvalue { ptr, i32 } %9, 0
  tail call void @__clang_call_terminate(ptr %10) #29
  unreachable

_ZN4absl13time_internal4cctz12_GLOBAL__N_118FileZoneInfoSourceD2Ev.exit: ; preds = %1, %4
  store ptr null, ptr %2, align 8, !tbaa !267
  tail call void @_ZN4absl13time_internal4cctz14ZoneInfoSourceD2Ev(ptr noundef nonnull align 8 dereferenceable(32) %0) #25
  tail call void @_ZdlPvm(ptr noundef nonnull %0, i64 noundef 32) #28
  ret void
}